; ModuleID = '29/1969.c'
source_filename = "29/1969.c"
target datalayout = "e-m:e-p270:32:32-p271:32:32-p272:64:64-i64:64-f80:128-n8:16:32:64-S128"
target triple = "x86_64-pc-linux-gnu"

@.str = private unnamed_addr constant [3 x i8] c"%d\00", align 1
@.str.1 = private unnamed_addr constant [7 x i8] c"%.3lf\0A\00", align 1

; Function Attrs: noinline nounwind uwtable
define dso_local i32 @main() #0 {
  %1 = alloca i32, align 4
  %2 = alloca i32, align 4
  %3 = alloca i32, align 4
  %4 = alloca i32, align 4
  %5 = alloca i32, align 4
  %6 = alloca [1000 x double], align 16
  %7 = alloca [1000 x double], align 16
  %8 = alloca double, align 8
  store i32 0, i32* %1, align 4
  store double 0.000000e+00, double* %8, align 8
  %9 = call i32 (i8*, ...) @__isoc99_scanf(i8* getelementptr inbounds ([3 x i8], [3 x i8]* @.str, i64 0, i64 0), i32* %4)
  store i32 1, i32* %3, align 4
  br label %10

10:                                               ; preds = %79, %0
  %11 = load i32, i32* %3, align 4
  %12 = load i32, i32* %4, align 4
  %13 = icmp sle i32 %11, %12
  br i1 %13, label %14, label %82

14:                                               ; preds = %10
  store double 0.000000e+00, double* %8, align 8
  %15 = call i32 (i8*, ...) @__isoc99_scanf(i8* getelementptr inbounds ([3 x i8], [3 x i8]* @.str, i64 0, i64 0), i32* %5)
  %16 = getelementptr inbounds [1000 x double], [1000 x double]* %6, i64 0, i64 0
  store double 2.000000e+00, double* %16, align 16
  %17 = getelementptr inbounds [1000 x double], [1000 x double]* %6, i64 0, i64 1
  store double 3.000000e+00, double* %17, align 8
  %18 = getelementptr inbounds [1000 x double], [1000 x double]* %7, i64 0, i64 0
  store double 1.000000e+00, double* %18, align 16
  %19 = getelementptr inbounds [1000 x double], [1000 x double]* %7, i64 0, i64 1
  store double 2.000000e+00, double* %19, align 8
  store i32 0, i32* %2, align 4
  br label %20

20:                                               ; preds = %53, %14
  %21 = load i32, i32* %2, align 4
  %22 = load i32, i32* %5, align 4
  %23 = icmp slt i32 %21, %22
  br i1 %23, label %24, label %56

24:                                               ; preds = %20
  %25 = load i32, i32* %2, align 4
  %26 = sext i32 %25 to i64
  %27 = getelementptr inbounds [1000 x double], [1000 x double]* %6, i64 0, i64 %26
  %28 = load double, double* %27, align 8
  %29 = load i32, i32* %2, align 4
  %30 = add nsw i32 %29, 1
  %31 = sext i32 %30 to i64
  %32 = getelementptr inbounds [1000 x double], [1000 x double]* %6, i64 0, i64 %31
  %33 = load double, double* %32, align 8
  %34 = fadd double %28, %33
  %35 = load i32, i32* %2, align 4
  %36 = add nsw i32 %35, 2
  %37 = sext i32 %36 to i64
  %38 = getelementptr inbounds [1000 x double], [1000 x double]* %6, i64 0, i64 %37
  store double %34, double* %38, align 8
  %39 = load i32, i32* %2, align 4
  %40 = sext i32 %39 to i64
  %41 = getelementptr inbounds [1000 x double], [1000 x double]* %7, i64 0, i64 %40
  %42 = load double, double* %41, align 8
  %43 = load i32, i32* %2, align 4
  %44 = add nsw i32 %43, 1
  %45 = sext i32 %44 to i64
  %46 = getelementptr inbounds [1000 x double], [1000 x double]* %7, i64 0, i64 %45
  %47 = load double, double* %46, align 8
  %48 = fadd double %42, %47
  %49 = load i32, i32* %2, align 4
  %50 = add nsw i32 %49, 2
  %51 = sext i32 %50 to i64
  %52 = getelementptr inbounds [1000 x double], [1000 x double]* %7, i64 0, i64 %51
  store double %48, double* %52, align 8
  br label %53

53:                                               ; preds = %24
  %54 = load i32, i32* %2, align 4
  %55 = add nsw i32 %54, 1
  store i32 %55, i32* %2, align 4
  br label %20

56:                                               ; preds = %20
  store i32 0, i32* %2, align 4
  br label %57

57:                                               ; preds = %73, %56
  %58 = load i32, i32* %2, align 4
  %59 = load i32, i32* %5, align 4
  %60 = icmp slt i32 %58, %59
  br i1 %60, label %61, label %76

61:                                               ; preds = %57
  %62 = load double, double* %8, align 8
  %63 = load i32, i32* %2, align 4
  %64 = sext i32 %63 to i64
  %65 = getelementptr inbounds [1000 x double], [1000 x double]* %6, i64 0, i64 %64
  %66 = load double, double* %65, align 8
  %67 = load i32, i32* %2, align 4
  %68 = sext i32 %67 to i64
  %69 = getelementptr inbounds [1000 x double], [1000 x double]* %7, i64 0, i64 %68
  %70 = load double, double* %69, align 8
  %71 = fdiv double %66, %70
  %72 = fadd double %62, %71
  store double %72, double* %8, align 8
  br label %73

73:                                               ; preds = %61
  %74 = load i32, i32* %2, align 4
  %75 = add nsw i32 %74, 1
  store i32 %75, i32* %2, align 4
  br label %57

76:                                               ; preds = %57
  %77 = load double, double* %8, align 8
  %78 = call i32 (i8*, ...) @printf(i8* getelementptr inbounds ([7 x i8], [7 x i8]* @.str.1, i64 0, i64 0), double %77)
  br label %79

79:                                               ; preds = %76
  %80 = load i32, i32* %3, align 4
  %81 = add nsw i32 %80, 1
  store i32 %81, i32* %3, align 4
  br label %10

82:                                               ; preds = %10
  ret i32 0
}

declare dso_local i32 @__isoc99_scanf(i8*, ...) #1

declare dso_local i32 @printf(i8*, ...) #1


!llvm.module.flags = !{!0}
!llvm.ident = !{!1}

!0 = !{i32 1, !"wchar_size", i32 4}
!1 = !{!"clang version 10.0.0-4ubuntu1 "}
